; ModuleID = '55/446.c'
source_filename = "55/446.c"
target datalayout = "e-m:e-p270:32:32-p271:32:32-p272:64:64-i64:64-f80:128-n8:16:32:64-S128"
target triple = "x86_64-pc-linux-gnu"

@.str = private unnamed_addr constant [7 x i8] c"%d%s%d\00", align 1
@.str.1 = private unnamed_addr constant [3 x i8] c"%c\00", align 1
@.str.2 = private unnamed_addr constant [2 x i8] c"\0A\00", align 1

; Function Attrs: noinline nounwind uwtable
define dso_local i32 @main() #0 {
  %1 = alloca i32, align 4
  %2 = alloca i32, align 4
  %3 = alloca i32, align 4
  %4 = alloca i32, align 4
  %5 = alloca i32, align 4
  %6 = alloca i32, align 4
  %7 = alloca i32, align 4
  %8 = alloca i32, align 4
  %9 = alloca [1025 x i8], align 16
  %10 = alloca [1025 x i8], align 16
  store i32 0, i32* %1, align 4
  store i32 0, i32* %8, align 4
  %11 = getelementptr inbounds [1025 x i8], [1025 x i8]* %9, i64 0, i64 0
  %12 = call i32 (i8*, ...) @__isoc99_scanf(i8* getelementptr inbounds ([7 x i8], [7 x i8]* @.str, i64 0, i64 0), i32* %3, i8* %11, i32* %4)
  %13 = getelementptr inbounds [1025 x i8], [1025 x i8]* %9, i64 0, i64 0
  %14 = call i64 @strlen(i8* %13) #3
  %15 = trunc i64 %14 to i32
  store i32 %15, i32* %5, align 4
  store i32 0, i32* %2, align 4
  br label %16

16:                                               ; preds = %71, %0
  %17 = load i32, i32* %2, align 4
  %18 = load i32, i32* %5, align 4
  %19 = icmp slt i32 %17, %18
  br i1 %19, label %20, label %74

20:                                               ; preds = %16
  %21 = load i32, i32* %2, align 4
  %22 = sext i32 %21 to i64
  %23 = getelementptr inbounds [1025 x i8], [1025 x i8]* %9, i64 0, i64 %22
  %24 = load i8, i8* %23, align 1
  %25 = sext i8 %24 to i32
  %26 = icmp sge i32 %25, 97
  br i1 %26, label %27, label %35

27:                                               ; preds = %20
  %28 = load i32, i32* %2, align 4
  %29 = sext i32 %28 to i64
  %30 = getelementptr inbounds [1025 x i8], [1025 x i8]* %9, i64 0, i64 %29
  %31 = load i8, i8* %30, align 1
  %32 = sext i8 %31 to i32
  %33 = add nsw i32 %32, 10
  %34 = sub nsw i32 %33, 97
  store i32 %34, i32* %7, align 4
  br label %65

35:                                               ; preds = %20
  %36 = load i32, i32* %2, align 4
  %37 = sext i32 %36 to i64
  %38 = getelementptr inbounds [1025 x i8], [1025 x i8]* %9, i64 0, i64 %37
  %39 = load i8, i8* %38, align 1
  %40 = sext i8 %39 to i32
  %41 = icmp sge i32 %40, 65
  br i1 %41, label %42, label %57

42:                                               ; preds = %35
  %43 = load i32, i32* %2, align 4
  %44 = sext i32 %43 to i64
  %45 = getelementptr inbounds [1025 x i8], [1025 x i8]* %9, i64 0, i64 %44
  %46 = load i8, i8* %45, align 1
  %47 = sext i8 %46 to i32
  %48 = icmp sle i32 %47, 90
  br i1 %48, label %49, label %57

49:                                               ; preds = %42
  %50 = load i32, i32* %2, align 4
  %51 = sext i32 %50 to i64
  %52 = getelementptr inbounds [1025 x i8], [1025 x i8]* %9, i64 0, i64 %51
  %53 = load i8, i8* %52, align 1
  %54 = sext i8 %53 to i32
  %55 = add nsw i32 %54, 10
  %56 = sub nsw i32 %55, 65
  store i32 %56, i32* %7, align 4
  br label %64

57:                                               ; preds = %42, %35
  %58 = load i32, i32* %2, align 4
  %59 = sext i32 %58 to i64
  %60 = getelementptr inbounds [1025 x i8], [1025 x i8]* %9, i64 0, i64 %59
  %61 = load i8, i8* %60, align 1
  %62 = sext i8 %61 to i32
  %63 = sub nsw i32 %62, 48
  store i32 %63, i32* %7, align 4
  br label %64

64:                                               ; preds = %57, %49
  br label %65

65:                                               ; preds = %64, %27
  %66 = load i32, i32* %8, align 4
  %67 = load i32, i32* %3, align 4
  %68 = mul nsw i32 %66, %67
  %69 = load i32, i32* %7, align 4
  %70 = add nsw i32 %68, %69
  store i32 %70, i32* %8, align 4
  br label %71

71:                                               ; preds = %65
  %72 = load i32, i32* %2, align 4
  %73 = add nsw i32 %72, 1
  store i32 %73, i32* %2, align 4
  br label %16

74:                                               ; preds = %16
  store i32 0, i32* %2, align 4
  br label %75

75:                                               ; preds = %113, %74
  %76 = load i32, i32* %2, align 4
  %77 = icmp slt i32 %76, 1025
  br i1 %77, label %78, label %116

78:                                               ; preds = %75
  %79 = load i32, i32* %8, align 4
  %80 = load i32, i32* %4, align 4
  %81 = srem i32 %79, %80
  %82 = icmp sgt i32 %81, 9
  br i1 %82, label %83, label %92

83:                                               ; preds = %78
  %84 = load i32, i32* %8, align 4
  %85 = load i32, i32* %4, align 4
  %86 = srem i32 %84, %85
  %87 = add nsw i32 %86, 55
  %88 = trunc i32 %87 to i8
  %89 = load i32, i32* %2, align 4
  %90 = sext i32 %89 to i64
  %91 = getelementptr inbounds [1025 x i8], [1025 x i8]* %10, i64 0, i64 %90
  store i8 %88, i8* %91, align 1
  br label %101

92:                                               ; preds = %78
  %93 = load i32, i32* %8, align 4
  %94 = load i32, i32* %4, align 4
  %95 = srem i32 %93, %94
  %96 = add nsw i32 %95, 48
  %97 = trunc i32 %96 to i8
  %98 = load i32, i32* %2, align 4
  %99 = sext i32 %98 to i64
  %100 = getelementptr inbounds [1025 x i8], [1025 x i8]* %10, i64 0, i64 %99
  store i8 %97, i8* %100, align 1
  br label %101

101:                                              ; preds = %92, %83
  %102 = load i32, i32* %8, align 4
  %103 = load i32, i32* %4, align 4
  %104 = sdiv i32 %102, %103
  store i32 %104, i32* %8, align 4
  %105 = load i32, i32* %8, align 4
  %106 = icmp eq i32 %105, 0
  br i1 %106, label %107, label %112

107:                                              ; preds = %101
  %108 = load i32, i32* %2, align 4
  %109 = add nsw i32 %108, 1
  %110 = sext i32 %109 to i64
  %111 = getelementptr inbounds [1025 x i8], [1025 x i8]* %10, i64 0, i64 %110
  store i8 0, i8* %111, align 1
  br label %116

112:                                              ; preds = %101
  br label %113

113:                                              ; preds = %112
  %114 = load i32, i32* %2, align 4
  %115 = add nsw i32 %114, 1
  store i32 %115, i32* %2, align 4
  br label %75

116:                                              ; preds = %107, %75
  %117 = getelementptr inbounds [1025 x i8], [1025 x i8]* %10, i64 0, i64 0
  %118 = call i64 @strlen(i8* %117) #3
  %119 = trunc i64 %118 to i32
  store i32 %119, i32* %6, align 4
  store i32 0, i32* %2, align 4
  br label %120

120:                                              ; preds = %134, %116
  %121 = load i32, i32* %2, align 4
  %122 = load i32, i32* %6, align 4
  %123 = icmp slt i32 %121, %122
  br i1 %123, label %124, label %137

124:                                              ; preds = %120
  %125 = load i32, i32* %6, align 4
  %126 = load i32, i32* %2, align 4
  %127 = sub nsw i32 %125, %126
  %128 = sub nsw i32 %127, 1
  %129 = sext i32 %128 to i64
  %130 = getelementptr inbounds [1025 x i8], [1025 x i8]* %10, i64 0, i64 %129
  %131 = load i8, i8* %130, align 1
  %132 = sext i8 %131 to i32
  %133 = call i32 (i8*, ...) @printf(i8* getelementptr inbounds ([3 x i8], [3 x i8]* @.str.1, i64 0, i64 0), i32 %132)
  br label %134

134:                                              ; preds = %124
  %135 = load i32, i32* %2, align 4
  %136 = add nsw i32 %135, 1
  store i32 %136, i32* %2, align 4
  br label %120

137:                                              ; preds = %120
  %138 = call i32 (i8*, ...) @printf(i8* getelementptr inbounds ([2 x i8], [2 x i8]* @.str.2, i64 0, i64 0))
  %139 = load i32, i32* %1, align 4
  ret i32 %139
}

declare dso_local i32 @__isoc99_scanf(i8*, ...) #1

; Function Attrs: nounwind readonly
declare dso_local i64 @strlen(i8*) #2

declare dso_local i32 @printf(i8*, ...) #1


!llvm.module.flags = !{!0}
!llvm.ident = !{!1}

!0 = !{i32 1, !"wchar_size", i32 4}
!1 = !{!"clang version 10.0.0-4ubuntu1 "}
